; ModuleID = '11/859.c'
source_filename = "11/859.c"
target datalayout = "e-m:e-p270:32:32-p271:32:32-p272:64:64-i64:64-f80:128-n8:16:32:64-S128"
target triple = "x86_64-pc-linux-gnu"

@.str = private unnamed_addr constant [3 x i8] c"%d\00", align 1
@.str.1 = private unnamed_addr constant [4 x i8] c"%d\0A\00", align 1

; Function Attrs: noinline nounwind uwtable
define dso_local void @main() #0 {
  %1 = alloca i32, align 4
  %2 = alloca i32, align 4
  %3 = alloca i32, align 4
  %4 = alloca i32, align 4
  %5 = alloca i32, align 4
  store i32 0, i32* %4, align 4
  %6 = call i32 (i8*, ...) @__isoc99_scanf(i8* getelementptr inbounds ([3 x i8], [3 x i8]* @.str, i64 0, i64 0), i32* %1)
  %7 = call i32 (i8*, ...) @__isoc99_scanf(i8* getelementptr inbounds ([3 x i8], [3 x i8]* @.str, i64 0, i64 0), i32* %2)
  %8 = call i32 (i8*, ...) @__isoc99_scanf(i8* getelementptr inbounds ([3 x i8], [3 x i8]* @.str, i64 0, i64 0), i32* %3)
  store i32 1, i32* %5, align 4
  br label %9

9:                                                ; preds = %33, %0
  %10 = load i32, i32* %5, align 4
  %11 = load i32, i32* %2, align 4
  %12 = icmp slt i32 %10, %11
  br i1 %12, label %13, label %36

13:                                               ; preds = %9
  %14 = load i32, i32* %5, align 4
  switch i32 %14, label %32 [
    i32 1, label %15
    i32 3, label %15
    i32 5, label %15
    i32 7, label %15
    i32 8, label %15
    i32 10, label %15
    i32 12, label %15
    i32 4, label %18
    i32 6, label %18
    i32 9, label %18
    i32 11, label %18
    i32 2, label %21
  ]

15:                                               ; preds = %13, %13, %13, %13, %13, %13, %13
  %16 = load i32, i32* %4, align 4
  %17 = add nsw i32 %16, 31
  store i32 %17, i32* %4, align 4
  br label %32

18:                                               ; preds = %13, %13, %13, %13
  %19 = load i32, i32* %4, align 4
  %20 = add nsw i32 %19, 30
  store i32 %20, i32* %4, align 4
  br label %32

21:                                               ; preds = %13
  %22 = load i32, i32* %1, align 4
  %23 = call i32 @isrunnian(i32 %22)
  %24 = icmp ne i32 %23, 0
  br i1 %24, label %25, label %28

25:                                               ; preds = %21
  %26 = load i32, i32* %4, align 4
  %27 = add nsw i32 %26, 29
  store i32 %27, i32* %4, align 4
  br label %31

28:                                               ; preds = %21
  %29 = load i32, i32* %4, align 4
  %30 = add nsw i32 %29, 28
  store i32 %30, i32* %4, align 4
  br label %31

31:                                               ; preds = %28, %25
  br label %32

32:                                               ; preds = %13, %31, %18, %15
  br label %33

33:                                               ; preds = %32
  %34 = load i32, i32* %5, align 4
  %35 = add nsw i32 %34, 1
  store i32 %35, i32* %5, align 4
  br label %9

36:                                               ; preds = %9
  %37 = load i32, i32* %4, align 4
  %38 = load i32, i32* %3, align 4
  %39 = add nsw i32 %37, %38
  store i32 %39, i32* %4, align 4
  %40 = load i32, i32* %4, align 4
  %41 = call i32 (i8*, ...) @printf(i8* getelementptr inbounds ([4 x i8], [4 x i8]* @.str.1, i64 0, i64 0), i32 %40)
  ret void
}

declare dso_local i32 @__isoc99_scanf(i8*, ...) #1

; Function Attrs: noinline nounwind uwtable
define dso_local i32 @isrunnian(i32 %0) #0 {
  %2 = alloca i32, align 4
  %3 = alloca i32, align 4
  store i32 %0, i32* %3, align 4
  %4 = load i32, i32* %3, align 4
  %5 = srem i32 %4, 400
  %6 = icmp eq i32 %5, 0
  br i1 %6, label %7, label %8

7:                                                ; preds = %1
  store i32 1, i32* %2, align 4
  br label %18

8:                                                ; preds = %1
  %9 = load i32, i32* %3, align 4
  %10 = srem i32 %9, 4
  %11 = icmp eq i32 %10, 0
  br i1 %11, label %12, label %17

12:                                               ; preds = %8
  %13 = load i32, i32* %3, align 4
  %14 = srem i32 %13, 100
  %15 = icmp ne i32 %14, 0
  br i1 %15, label %16, label %17

16:                                               ; preds = %12
  store i32 1, i32* %2, align 4
  br label %18

17:                                               ; preds = %12, %8
  store i32 0, i32* %2, align 4
  br label %18

18:                                               ; preds = %17, %16, %7
  %19 = load i32, i32* %2, align 4
  ret i32 %19
}

declare dso_local i32 @printf(i8*, ...) #1


!llvm.module.flags = !{!0}
!llvm.ident = !{!1}

!0 = !{i32 1, !"wchar_size", i32 4}
!1 = !{!"clang version 10.0.0-4ubuntu1 "}
